; Function Attrs: mustprogress uwtable
define void @_ZN5arrow6Buffer11ToHexStringB5cxx11Ev(ptr noalias sret(%"class.std::__cxx11::basic_string") align 8 %agg.result, ptr nocapture noundef nonnull readonly align 8 dereferenceable(80) %this) local_unnamed_addr #0 align 2 {
entry:
  %is_cpu_.i = getelementptr inbounds i8, ptr %this, i64 9
  %0 = load i8, ptr %is_cpu_.i, align 1
  %1 = and i8 %0, 1
  %tobool.not.i = icmp eq i8 %1, 0
  %data_.i = getelementptr inbounds i8, ptr %this, i64 16
  %2 = load ptr, ptr %data_.i, align 8
  %cond.i = select i1 %tobool.not.i, ptr null, ptr %2
  %size_.i = getelementptr inbounds i8, ptr %this, i64 24
  %3 = load i64, ptr %size_.i, align 8
  tail call void @_ZN5arrow9HexEncodeB5cxx11EPKhm(ptr sret(%"class.std::__cxx11::basic_string") align 8 %agg.result, ptr noundef %cond.i, i64 noundef %3)
  ret void
}